target datalayout = "e-m:e-p270:32:32-p271:32:32-p272:64:64-i64:64-i128:128-f80:128-n8:16:32:64-S128"
target triple = "x86_64-pc-linux-gnu"

%union.pthread_mutex_t = type { %struct.__pthread_mutex_s }
%struct.__pthread_mutex_s = type { i32, i32, i32, i32, i32, i16, i16, %struct.__pthread_internal_list }
%struct.__pthread_internal_list = type { ptr, ptr }
%union.pthread_cond_t = type { %struct.__pthread_cond_s }
%struct.__pthread_cond_s = type { %union.__atomic_wide_counter, %union.__atomic_wide_counter, [2 x i32], [2 x i32], i32, i32, [2 x i32] }
%union.__atomic_wide_counter = type { i64 }
%struct.slurm_conf_t = type { i64, ptr, i16, ptr, ptr, ptr, ptr, ptr, i16, ptr, ptr, ptr, ptr, ptr, ptr, ptr, i16, ptr, ptr, ptr, ptr, i16, ptr, ptr, ptr, i64, ptr, ptr, ptr, ptr, i16, ptr, ptr, i16, i32, ptr, i32, ptr, i32, i32, ptr, ptr, i64, i64, ptr, i16, i16, ptr, i32, i32, ptr, i32, ptr, i32, i16, i16, i16, ptr, i16, i16, ptr, ptr, i32, i16, i16, ptr, i32, i16, ptr, ptr, ptr, ptr, i16, ptr, ptr, ptr, ptr, i32, ptr, ptr, ptr, ptr, i16, i16, ptr, i32, i32, i32, i16, i16, ptr, ptr, i16, ptr, ptr, i32, i32, i32, i32, i32, i64, i32, i32, i16, ptr, ptr, i32, ptr, ptr, ptr, i16, i32, ptr, ptr, i16, ptr, ptr, i32, i16, ptr, ptr, ptr, ptr, i32, i32, i16, i16, i32, ptr, i16, ptr, i32, i32, i32, i32, i32, i32, ptr, i16, ptr, ptr, i32, i16, ptr, i32, i16, i16, ptr, ptr, ptr, i16, ptr, ptr, ptr, ptr, i16, i16, ptr, i16, ptr, i16, ptr, i16, ptr, i16, ptr, ptr, ptr, ptr, i16, ptr, ptr, ptr, i32, ptr, i32, ptr, ptr, i16, ptr, ptr, i32, i16, ptr, ptr, i16, i16, ptr, i16, ptr, ptr, ptr, i32, ptr, i16, i16, ptr, ptr, ptr, ptr, ptr, ptr, ptr, ptr, i16, i32, i16, ptr, ptr, ptr, ptr, i32, ptr, ptr, ptr, i16, ptr, ptr, ptr, i16, ptr, i16, ptr, i16, i16, ptr }
%struct.stepd_step_rec_t = type { ptr, ptr, i32, %union.pthread_cond_t, %union.pthread_mutex_t, %struct.slurm_step_id_msg, i32, i32, i32, i32, i32, i32, ptr, ptr, i32, i32, ptr, i32, i32, i32, i32, i32, ptr, ptr, ptr, ptr, i32, i32, i64, i64, i16, i32, ptr, ptr, ptr, i32, ptr, i32, ptr, i32, ptr, i16, i32, i32, i32, ptr, i32, ptr, ptr, ptr, ptr, i32, i32, ptr, ptr, i8, i8, i8, i64, i32, ptr, ptr, ptr, ptr, ptr, ptr, ptr, ptr, ptr, ptr, i32, i32, ptr, i8, %union.pthread_cond_t, %union.pthread_mutex_t, i64, ptr, i32, i32, i32, ptr, i64, ptr, ptr, i8, ptr, i16, ptr, ptr, ptr, ptr, ptr, ptr, i64, ptr, i64, ptr, i16, i8, i16, i32, ptr, i16, ptr, ptr, i16, ptr, ptr, ptr, i8 }
%struct.slurm_step_id_msg = type { i64, i32, i32, i32 }

@plugin_type = dso_local constant [23 x i8] c"acct_gather_energy/gpu\00", align 16
@gpu_mutex = internal global %union.pthread_mutex_t zeroinitializer, align 8
@.str = private unnamed_addr constant [29 x i8] c"%s: pthread_mutex_lock(): %m\00", align 1
@.str.3 = private unnamed_addr constant [31 x i8] c"%s: pthread_mutex_unlock(): %m\00", align 1
@saved_usable_gpus = internal global ptr null, align 8
@.str.5 = private unnamed_addr constant [20 x i8] c"%s: unknown enum %d\00", align 1
@__func__.acct_gather_energy_p_set_data = private unnamed_addr constant [30 x i8] c"acct_gather_energy_p_set_data\00", align 1
@step = internal global ptr null, align 8
@.str.6 = private unnamed_addr constant [4 x i8] c"gpu\00", align 1
@slurm_conf = external global %struct.slurm_conf_t, align 8
@.str.7 = private unnamed_addr constant [40 x i8] c"%s: %s: ENERGY: usable_gpus = %d of %ld\00", align 1
@.str.8 = private unnamed_addr constant [67 x i8] c"%s: %s: Step most likely doesn't have any gpus, no power gathering\00", align 1
@.str.9 = private unnamed_addr constant [32 x i8] c"gres_get_step_info returned: %s\00", align 1

; Function Attrs: nounwind uwtable
define dso_local i32 @acct_gather_energy_p_set_data(i32 noundef %0, ptr noundef %1) #0 {
  %3 = alloca i32, align 4
  %4 = alloca ptr, align 8
  %5 = alloca i32, align 4
  %6 = alloca ptr, align 8
  %7 = alloca i32, align 4
  %8 = alloca i32, align 4
  store i32 %0, ptr %3, align 4
  store ptr %1, ptr %4, align 8
  call void @llvm.lifetime.start.p0(i64 4, ptr %5) #9
  store i32 0, ptr %5, align 4
  call void @llvm.lifetime.start.p0(i64 8, ptr %6) #9
  %9 = load ptr, ptr %4, align 8
  store ptr %9, ptr %6, align 8
  %10 = load i32, ptr %3, align 4
  switch i32 %10, label %85 [
    i32 2, label %88
    i32 3, label %11
    i32 8, label %37
  ]

11:                                               ; preds = %2
  br label %12

12:                                               ; preds = %11
  call void @llvm.lifetime.start.p0(i64 4, ptr %7) #9
  %13 = call i32 @pthread_mutex_lock(ptr noundef @gpu_mutex) #9
  store i32 %13, ptr %7, align 4
  %14 = load i32, ptr %7, align 4
  %15 = icmp ne i32 %14, 0
  br i1 %15, label %16, label %19

16:                                               ; preds = %12
  %17 = load i32, ptr %7, align 4
  %18 = call ptr @__errno_location() #10
  store i32 %17, ptr %18, align 4
  call void (ptr, ...) @slurm_fatal_abort(ptr noundef @.str, ptr noundef @__func__.acct_gather_energy_p_set_data) #11
  unreachable

19:                                               ; preds = %12
  call void @llvm.lifetime.end.p0(i64 4, ptr %7) #9
  br label %20

20:                                               ; preds = %19
  br label %21

21:                                               ; preds = %20
  %22 = load ptr, ptr %6, align 8
  %23 = load i32, ptr %22, align 4
  %24 = trunc i32 %23 to i16
  %25 = call i32 @_get_joules_task(i16 noundef zeroext %24)
  %26 = call i32 @_send_profile()
  br label %27

27:                                               ; preds = %21
  call void @llvm.lifetime.start.p0(i64 4, ptr %8) #9
  %28 = call i32 @pthread_mutex_unlock(ptr noundef @gpu_mutex) #9
  store i32 %28, ptr %8, align 4
  %29 = load i32, ptr %8, align 4
  %30 = icmp ne i32 %29, 0
  br i1 %30, label %31, label %34

31:                                               ; preds = %27
  %32 = load i32, ptr %8, align 4
  %33 = call ptr @__errno_location() #10
  store i32 %32, ptr %33, align 4
  call void (ptr, ...) @slurm_fatal_abort(ptr noundef @.str.3, ptr noundef @__func__.acct_gather_energy_p_set_data) #11
  unreachable

34:                                               ; preds = %27
  call void @llvm.lifetime.end.p0(i64 4, ptr %8) #9
  br label %35

35:                                               ; preds = %34
  br label %36

36:                                               ; preds = %35
  br label %88

37:                                               ; preds = %2
  %38 = load ptr, ptr %4, align 8
  store ptr %38, ptr @step, align 8
  %39 = load ptr, ptr @step, align 8
  %40 = getelementptr inbounds nuw %struct.stepd_step_rec_t, ptr %39, i32 0, i32 91
  %41 = load ptr, ptr %40, align 8
  %42 = call i32 @slurm_gres_get_step_info(ptr noundef %41, ptr noundef @.str.6, i32 noundef 0, i32 noundef 1, ptr noundef @saved_usable_gpus)
  store i32 %42, ptr %5, align 4
  %43 = load i32, ptr %5, align 4
  %44 = icmp eq i32 %43, 0
  br i1 %44, label %45, label %65

45:                                               ; preds = %37
  br label %46

46:                                               ; preds = %45
  %47 = load i64, ptr getelementptr inbounds nuw (%struct.slurm_conf_t, ptr @slurm_conf, i32 0, i32 42), align 8
  %48 = and i64 %47, 262144
  %49 = icmp ne i64 %48, 0
  br i1 %49, label %50, label %62

50:                                               ; preds = %46
  br label %51

51:                                               ; preds = %50
  %52 = call i32 @slurm_get_log_level()
  %53 = icmp sge i32 %52, 4
  br i1 %53, label %54, label %59

54:                                               ; preds = %51
  %55 = load ptr, ptr @saved_usable_gpus, align 8
  %56 = call i32 @slurm_bit_set_count(ptr noundef %55)
  %57 = load ptr, ptr @saved_usable_gpus, align 8
  %58 = call i64 @slurm_bit_size(ptr noundef %57)
  call void (i32, ptr, ...) @slurm_log_var(i32 noundef 4, ptr noundef @.str.7, ptr noundef @plugin_type, ptr noundef @__func__.acct_gather_energy_p_set_data, i32 noundef %56, i64 noundef %58)
  br label %59

59:                                               ; preds = %54, %51
  br label %60

60:                                               ; preds = %59
  br label %61

61:                                               ; preds = %60
  br label %62

62:                                               ; preds = %61, %46
  br label %63

63:                                               ; preds = %62
  br label %64

64:                                               ; preds = %63
  br label %84

65:                                               ; preds = %37
  %66 = load i32, ptr %5, align 4
  %67 = icmp eq i32 %66, 2072
  br i1 %67, label %68, label %79

68:                                               ; preds = %65
  br label %69

69:                                               ; preds = %68
  br label %70

70:                                               ; preds = %69
  %71 = call i32 @slurm_get_log_level()
  %72 = icmp sge i32 %71, 6
  br i1 %72, label %73, label %74

73:                                               ; preds = %70
  call void (i32, ptr, ...) @slurm_log_var(i32 noundef 6, ptr noundef @.str.8, ptr noundef @plugin_type, ptr noundef @__func__.acct_gather_energy_p_set_data)
  br label %74

74:                                               ; preds = %73, %70
  br label %75

75:                                               ; preds = %74
  br label %76

76:                                               ; preds = %75
  br label %77

77:                                               ; preds = %76
  br label %78

78:                                               ; preds = %77
  br label %83

79:                                               ; preds = %65
  %80 = load i32, ptr %5, align 4
  %81 = call ptr @slurm_strerror(i32 noundef %80)
  %82 = call i32 (ptr, ...) @slurm_error(ptr noundef @.str.9, ptr noundef %81)
  br label %83

83:                                               ; preds = %79, %78
  br label %84

84:                                               ; preds = %83, %64
  br label %88

85:                                               ; preds = %2
  %86 = load i32, ptr %3, align 4
  %87 = call i32 (ptr, ...) @slurm_error(ptr noundef @.str.5, ptr noundef @__func__.acct_gather_energy_p_set_data, i32 noundef %86)
  store i32 -1, ptr %5, align 4
  br label %88

88:                                               ; preds = %85, %84, %36, %2
  %89 = load i32, ptr %5, align 4
  call void @llvm.lifetime.end.p0(i64 8, ptr %6) #9
  call void @llvm.lifetime.end.p0(i64 4, ptr %5) #9
  ret i32 %89
}