; Function Attrs: nounwind uwtable
define dso_local noundef i32 @acct_gather_energy_p_set_data(i32 noundef %0, ptr noundef %1) local_unnamed_addr #1 {
  switch i32 %0, label %35 [
    i32 2, label %37
    i32 3, label %3
    i32 8, label %13
  ]

3:                                                ; preds = %2
  %4 = tail call i32 @pthread_mutex_lock(ptr noundef nonnull @gpu_mutex) #11
  %.not15 = icmp eq i32 %4, 0
  br i1 %.not15, label %7, label %5

5:                                                ; preds = %3
  %6 = tail call ptr @__errno_location() #12
  store i32 %4, ptr %6, align 4
  tail call void (ptr, ...) @slurm_fatal_abort(ptr noundef nonnull @.str, ptr noundef nonnull @__func__.acct_gather_energy_p_set_data) #13
  unreachable

7:                                                ; preds = %3
  %8 = load i32, ptr %1, align 4
  %9 = trunc i32 %8 to i16
  tail call fastcc void @_get_joules_task(i16 noundef zeroext %9)
  tail call fastcc void @_send_profile()
  %10 = tail call i32 @pthread_mutex_unlock(ptr noundef nonnull @gpu_mutex) #11
  %.not16 = icmp eq i32 %10, 0
  br i1 %.not16, label %37, label %11

11:                                               ; preds = %7
  %12 = tail call ptr @__errno_location() #12
  store i32 %10, ptr %12, align 4
  tail call void (ptr, ...) @slurm_fatal_abort(ptr noundef nonnull @.str.3, ptr noundef nonnull @__func__.acct_gather_energy_p_set_data) #13
  unreachable

13:                                               ; preds = %2
  store ptr %1, ptr @step, align 8
  %14 = getelementptr inbounds nuw i8, ptr %1, i64 768
  %15 = load ptr, ptr %14, align 8
  %16 = tail call i32 @slurm_gres_get_step_info(ptr noundef %15, ptr noundef nonnull @.str.6, i32 noundef 0, i32 noundef 1, ptr noundef nonnull @saved_usable_gpus) #11
  switch i32 %16, label %32 [
    i32 0, label %17
    i32 2072, label %28
  ]

17:                                               ; preds = %13
  %18 = load i64, ptr getelementptr inbounds nuw (i8, ptr @slurm_conf, i64 320), align 8
  %19 = and i64 %18, 262144
  %.not = icmp eq i64 %19, 0
  br i1 %.not, label %37, label %20

20:                                               ; preds = %17
  %21 = tail call i32 @slurm_get_log_level() #11
  %22 = icmp sgt i32 %21, 3
  br i1 %22, label %23, label %37

23:                                               ; preds = %20
  %24 = load ptr, ptr @saved_usable_gpus, align 8
  %25 = tail call i32 @slurm_bit_set_count(ptr noundef %24) #11
  %26 = load ptr, ptr @saved_usable_gpus, align 8
  %27 = tail call i64 @slurm_bit_size(ptr noundef %26) #11
  tail call void (i32, ptr, ...) @slurm_log_var(i32 noundef 4, ptr noundef nonnull @.str.7, ptr noundef nonnull @plugin_type, ptr noundef nonnull @__func__.acct_gather_energy_p_set_data, i32 noundef %25, i64 noundef %27) #11
  br label %37

28:                                               ; preds = %13
  %29 = tail call i32 @slurm_get_log_level() #11
  %30 = icmp sgt i32 %29, 5
  br i1 %30, label %31, label %37

31:                                               ; preds = %28
  tail call void (i32, ptr, ...) @slurm_log_var(i32 noundef 6, ptr noundef nonnull @.str.8, ptr noundef nonnull @plugin_type, ptr noundef nonnull @__func__.acct_gather_energy_p_set_data) #11
  br label %37

32:                                               ; preds = %13
  %33 = tail call ptr @slurm_strerror(i32 noundef %16) #11
  %34 = tail call i32 (ptr, ...) @slurm_error(ptr noundef nonnull @.str.9, ptr noundef %33) #11
  br label %37

35:                                               ; preds = %2
  %36 = tail call i32 (ptr, ...) @slurm_error(ptr noundef nonnull @.str.5, ptr noundef nonnull @__func__.acct_gather_energy_p_set_data, i32 noundef %0) #11
  br label %37

37:                                               ; preds = %7, %20, %23, %17, %28, %31, %32, %35, %2
  %.0 = phi i32 [ -1, %35 ], [ 0, %23 ], [ 0, %20 ], [ 0, %17 ], [ 2072, %31 ], [ 2072, %28 ], [ %16, %32 ], [ 0, %2 ], [ 0, %7 ]
  ret i32 %.0
}